target datalayout = "e-m:e-p270:32:32-p271:32:32-p272:64:64-i64:64-i128:128-f80:128-n8:16:32:64-S128"
target triple = "x86_64-pc-linux-gnu"

%struct.archive_read = type { %struct.archive, ptr, i32, i64, i64, %struct.archive_read_client, [16 x %struct.archive_read_filter_bidder], ptr, i32, i64, i32, i32, [16 x %struct.archive_format_descriptor], ptr, ptr, ptr, %struct.anon }
%struct.archive = type { i32, i32, ptr, i32, ptr, i32, i32, ptr, %struct.archive_string, ptr, i32, i32, ptr, ptr, i64, i64, i64, i8, i64 }
%struct.archive_string = type { ptr, i64, i64 }
%struct.archive_read_client = type { ptr, ptr, ptr, ptr, ptr, ptr, i32, i32, i64, ptr }
%struct.archive_read_filter_bidder = type { ptr, ptr, ptr }
%struct.archive_format_descriptor = type { ptr, ptr, ptr, ptr, ptr, ptr, ptr, ptr, ptr, ptr, ptr }
%struct.anon = type { ptr, ptr, i32, ptr, ptr }
%struct.cab = type { i64, i64, i64, i64, i64, ptr, ptr, ptr, i64, %struct.cfheader, %struct.archive_wstring, i8, i8, i8, i8, i8, i64, ptr, i64, i32, ptr, ptr, ptr, [64 x i8], %struct.z_stream_s, i8, %struct.lzx_stream }
%struct.cfheader = type { i32, i32, i16, i16, i16, i16, i16, i8, i8, i8, i8, ptr, ptr, i32 }
%struct.archive_wstring = type { ptr, i64, i64 }
%struct.z_stream_s = type { ptr, i32, i64, ptr, i32, i64, ptr, ptr, ptr, ptr, ptr, i32, i64, i64 }
%struct.lzx_stream = type { ptr, i64, i64, ptr, i64, i64, ptr }
%struct.cffile = type { i32, i32, i64, i16, i8, %struct.archive_string }
%struct.cfdata = type { i32, i16, i16, i16, i16, i16, i16, i64, i64, ptr, i32, [4 x i8], i32, ptr }

@.str.24 = private unnamed_addr constant [15 x i8] c"Invalid CFDATA\00", align 1

; Function Attrs: nounwind uwtable
define internal i64 @cab_consume_cfdata(ptr noundef %0, i64 noundef %1) #0 {
  %3 = alloca i64, align 8
  %4 = alloca ptr, align 8
  %5 = alloca i64, align 8
  %6 = alloca ptr, align 8
  %7 = alloca ptr, align 8
  %8 = alloca i64, align 8
  %9 = alloca i64, align 8
  %10 = alloca i32, align 4
  %11 = alloca i32, align 4
  %12 = alloca i64, align 8
  store ptr %0, ptr %4, align 8, !tbaa !9
  store i64 %1, ptr %5, align 8, !tbaa !35
  call void @llvm.lifetime.start.p0(i64 8, ptr %6) #11
  %13 = load ptr, ptr %4, align 8, !tbaa !9
  %14 = getelementptr inbounds nuw %struct.archive_read, ptr %13, i32 0, i32 13
  %15 = load ptr, ptr %14, align 8, !tbaa !39
  %16 = getelementptr inbounds nuw %struct.archive_format_descriptor, ptr %15, i32 0, i32 0
  %17 = load ptr, ptr %16, align 8, !tbaa !53
  store ptr %17, ptr %6, align 8, !tbaa !13
  call void @llvm.lifetime.start.p0(i64 8, ptr %7) #11
  call void @llvm.lifetime.start.p0(i64 8, ptr %8) #11
  call void @llvm.lifetime.start.p0(i64 8, ptr %9) #11
  call void @llvm.lifetime.start.p0(i64 4, ptr %10) #11
  %18 = load ptr, ptr %4, align 8, !tbaa !9
  %19 = load i64, ptr %5, align 8, !tbaa !35
  %20 = call i64 @cab_minimum_consume_cfdata(ptr noundef %18, i64 noundef %19)
  store i64 %20, ptr %9, align 8, !tbaa !35
  %21 = load i64, ptr %9, align 8, !tbaa !35
  %22 = icmp slt i64 %21, 0
  br i1 %22, label %23, label %24

23:                                               ; preds = %2
  store i64 -30, ptr %3, align 8
  store i32 1, ptr %11, align 4
  br label %211

24:                                               ; preds = %2
  %25 = load ptr, ptr %6, align 8, !tbaa !13
  %26 = getelementptr inbounds nuw %struct.cab, ptr %25, i32 0, i32 7
  %27 = load ptr, ptr %26, align 8, !tbaa !77
  store ptr %27, ptr %7, align 8, !tbaa !144
  br label %28

28:                                               ; preds = %208, %206, %24
  %29 = load i64, ptr %9, align 8, !tbaa !35
  %30 = icmp sgt i64 %29, 0
  br i1 %30, label %31, label %209

31:                                               ; preds = %28
  call void @llvm.lifetime.start.p0(i64 8, ptr %12) #11
  %32 = load ptr, ptr %7, align 8, !tbaa !144
  %33 = getelementptr inbounds nuw %struct.cfdata, ptr %32, i32 0, i32 1
  %34 = load i16, ptr %33, align 4, !tbaa !154
  %35 = zext i16 %34 to i32
  %36 = icmp eq i32 %35, 0
  br i1 %36, label %37, label %40

37:                                               ; preds = %31
  %38 = load ptr, ptr %4, align 8, !tbaa !9
  %39 = getelementptr inbounds nuw %struct.archive_read, ptr %38, i32 0, i32 0
  call void (ptr, i32, ptr, ...) @archive_set_error(ptr noundef %39, i32 noundef 84, ptr noundef @.str.24)
  store i64 -30, ptr %3, align 8
  store i32 1, ptr %11, align 4
  br label %206

40:                                               ; preds = %31
  %41 = load ptr, ptr %7, align 8, !tbaa !144
  %42 = getelementptr inbounds nuw %struct.cfdata, ptr %41, i32 0, i32 4
  %43 = load i16, ptr %42, align 2, !tbaa !145
  %44 = zext i16 %43 to i64
  store i64 %44, ptr %8, align 8, !tbaa !35
  %45 = load i64, ptr %8, align 8, !tbaa !35
  %46 = load i64, ptr %9, align 8, !tbaa !35
  %47 = icmp sgt i64 %45, %46
  br i1 %47, label %48, label %50

48:                                               ; preds = %40
  %49 = load i64, ptr %9, align 8, !tbaa !35
  store i64 %49, ptr %8, align 8, !tbaa !35
  br label %50

50:                                               ; preds = %48, %40
  %51 = load i64, ptr %8, align 8, !tbaa !35
  %52 = load i64, ptr %9, align 8, !tbaa !35
  %53 = sub nsw i64 %52, %51
  store i64 %53, ptr %9, align 8, !tbaa !35
  %54 = load ptr, ptr %7, align 8, !tbaa !144
  %55 = getelementptr inbounds nuw %struct.cfdata, ptr %54, i32 0, i32 5
  %56 = load i16, ptr %55, align 4, !tbaa !157
  %57 = zext i16 %56 to i32
  %58 = icmp eq i32 %57, 0
  br i1 %58, label %59, label %147

59:                                               ; preds = %50
  %60 = load ptr, ptr %6, align 8, !tbaa !13
  %61 = getelementptr inbounds nuw %struct.cab, ptr %60, i32 0, i32 6
  %62 = load ptr, ptr %61, align 8, !tbaa !70
  %63 = getelementptr inbounds nuw %struct.cffile, ptr %62, i32 0, i32 3
  %64 = load i16, ptr %63, align 8, !tbaa !73
  %65 = zext i16 %64 to i32
  %66 = icmp eq i32 %65, 65535
  br i1 %66, label %75, label %67

67:                                               ; preds = %59
  %68 = load ptr, ptr %6, align 8, !tbaa !13
  %69 = getelementptr inbounds nuw %struct.cab, ptr %68, i32 0, i32 6
  %70 = load ptr, ptr %69, align 8, !tbaa !70
  %71 = getelementptr inbounds nuw %struct.cffile, ptr %70, i32 0, i32 3
  %72 = load i16, ptr %71, align 8, !tbaa !73
  %73 = zext i16 %72 to i32
  %74 = icmp eq i32 %73, 65533
  br i1 %74, label %75, label %147

75:                                               ; preds = %67, %59
  %76 = load i64, ptr %8, align 8, !tbaa !35
  %77 = load ptr, ptr %7, align 8, !tbaa !144
  %78 = getelementptr inbounds nuw %struct.cfdata, ptr %77, i32 0, i32 4
  %79 = load i16, ptr %78, align 2, !tbaa !145
  %80 = zext i16 %79 to i64
  %81 = icmp eq i64 %76, %80
  br i1 %81, label %82, label %128

82:                                               ; preds = %75
  %83 = load ptr, ptr %4, align 8, !tbaa !9
  %84 = load ptr, ptr %7, align 8, !tbaa !144
  %85 = getelementptr inbounds nuw %struct.cfdata, ptr %84, i32 0, i32 1
  %86 = load i16, ptr %85, align 4, !tbaa !154
  %87 = zext i16 %86 to i64
  %88 = call i64 @__archive_read_consume(ptr noundef %83, i64 noundef %87)
  %89 = load ptr, ptr %7, align 8, !tbaa !144
  %90 = getelementptr inbounds nuw %struct.cfdata, ptr %89, i32 0, i32 1
  %91 = load i16, ptr %90, align 4, !tbaa !154
  %92 = zext i16 %91 to i64
  %93 = load ptr, ptr %6, align 8, !tbaa !13
  %94 = getelementptr inbounds nuw %struct.cab, ptr %93, i32 0, i32 8
  %95 = load i64, ptr %94, align 8, !tbaa !109
  %96 = add nsw i64 %95, %92
  store i64 %96, ptr %94, align 8, !tbaa !109
  %97 = load ptr, ptr %7, align 8, !tbaa !144
  %98 = getelementptr inbounds nuw %struct.cfdata, ptr %97, i32 0, i32 2
  store i16 0, ptr %98, align 2, !tbaa !155
  %99 = load ptr, ptr %7, align 8, !tbaa !144
  %100 = getelementptr inbounds nuw %struct.cfdata, ptr %99, i32 0, i32 4
  store i16 0, ptr %100, align 2, !tbaa !145
  %101 = load ptr, ptr %4, align 8, !tbaa !9
  %102 = call i32 @cab_next_cfdata(ptr noundef %101)
  store i32 %102, ptr %10, align 4, !tbaa !11
  %103 = load i32, ptr %10, align 4, !tbaa !11
  %104 = icmp slt i32 %103, 0
  br i1 %104, label %105, label %108

105:                                              ; preds = %82
  %106 = load i32, ptr %10, align 4, !tbaa !11
  %107 = sext i32 %106 to i64
  store i64 %107, ptr %3, align 8
  store i32 1, ptr %11, align 4
  br label %206

108:                                              ; preds = %82
  %109 = load ptr, ptr %6, align 8, !tbaa !13
  %110 = getelementptr inbounds nuw %struct.cab, ptr %109, i32 0, i32 7
  %111 = load ptr, ptr %110, align 8, !tbaa !77
  store ptr %111, ptr %7, align 8, !tbaa !144
  %112 = load ptr, ptr %7, align 8, !tbaa !144
  %113 = getelementptr inbounds nuw %struct.cfdata, ptr %112, i32 0, i32 3
  %114 = load i16, ptr %113, align 8, !tbaa !156
  %115 = zext i16 %114 to i32
  %116 = icmp eq i32 %115, 0
  br i1 %116, label %117, label %127

117:                                              ; preds = %108
  %118 = load ptr, ptr %6, align 8, !tbaa !13
  %119 = getelementptr inbounds nuw %struct.cab, ptr %118, i32 0, i32 6
  %120 = load ptr, ptr %119, align 8, !tbaa !70
  %121 = getelementptr inbounds nuw %struct.cffile, ptr %120, i32 0, i32 3
  %122 = load i16, ptr %121, align 8, !tbaa !73
  %123 = zext i16 %122 to i32
  switch i32 %123, label %125 [
    i32 65535, label %124
    i32 65534, label %124
    i32 65533, label %124
  ]

124:                                              ; preds = %117, %117, %117
  store i64 0, ptr %9, align 8, !tbaa !35
  br label %126

125:                                              ; preds = %117
  br label %126

126:                                              ; preds = %125, %124
  br label %127

127:                                              ; preds = %126, %108
  store i32 2, ptr %11, align 4
  br label %206, !llvm.loop !161

128:                                              ; preds = %75
  %129 = load i64, ptr %8, align 8, !tbaa !35
  %130 = trunc i64 %129 to i16
  %131 = zext i16 %130 to i32
  %132 = load ptr, ptr %7, align 8, !tbaa !144
  %133 = getelementptr inbounds nuw %struct.cfdata, ptr %132, i32 0, i32 6
  %134 = load i16, ptr %133, align 2, !tbaa !158
  %135 = zext i16 %134 to i32
  %136 = add nsw i32 %135, %131
  %137 = trunc i32 %136 to i16
  store i16 %137, ptr %133, align 2, !tbaa !158
  %138 = load i64, ptr %8, align 8, !tbaa !35
  %139 = trunc i64 %138 to i16
  %140 = zext i16 %139 to i32
  %141 = load ptr, ptr %7, align 8, !tbaa !144
  %142 = getelementptr inbounds nuw %struct.cfdata, ptr %141, i32 0, i32 4
  %143 = load i16, ptr %142, align 2, !tbaa !145
  %144 = zext i16 %143 to i32
  %145 = sub nsw i32 %144, %140
  %146 = trunc i32 %145 to i16
  store i16 %146, ptr %142, align 2, !tbaa !145
  store i32 3, ptr %11, align 4
  br label %206

147:                                              ; preds = %67, %50
  %148 = load i64, ptr %8, align 8, !tbaa !35
  %149 = icmp eq i64 %148, 0
  br i1 %149, label %150, label %178

150:                                              ; preds = %147
  %151 = load ptr, ptr %4, align 8, !tbaa !9
  %152 = call i32 @cab_next_cfdata(ptr noundef %151)
  store i32 %152, ptr %10, align 4, !tbaa !11
  %153 = load i32, ptr %10, align 4, !tbaa !11
  %154 = icmp slt i32 %153, 0
  br i1 %154, label %155, label %158

155:                                              ; preds = %150
  %156 = load i32, ptr %10, align 4, !tbaa !11
  %157 = sext i32 %156 to i64
  store i64 %157, ptr %3, align 8
  store i32 1, ptr %11, align 4
  br label %206

158:                                              ; preds = %150
  %159 = load ptr, ptr %6, align 8, !tbaa !13
  %160 = getelementptr inbounds nuw %struct.cab, ptr %159, i32 0, i32 7
  %161 = load ptr, ptr %160, align 8, !tbaa !77
  store ptr %161, ptr %7, align 8, !tbaa !144
  %162 = load ptr, ptr %7, align 8, !tbaa !144
  %163 = getelementptr inbounds nuw %struct.cfdata, ptr %162, i32 0, i32 3
  %164 = load i16, ptr %163, align 8, !tbaa !156
  %165 = zext i16 %164 to i32
  %166 = icmp eq i32 %165, 0
  br i1 %166, label %167, label %177

167:                                              ; preds = %158
  %168 = load ptr, ptr %6, align 8, !tbaa !13
  %169 = getelementptr inbounds nuw %struct.cab, ptr %168, i32 0, i32 6
  %170 = load ptr, ptr %169, align 8, !tbaa !70
  %171 = getelementptr inbounds nuw %struct.cffile, ptr %170, i32 0, i32 3
  %172 = load i16, ptr %171, align 8, !tbaa !73
  %173 = zext i16 %172 to i32
  switch i32 %173, label %175 [
    i32 65535, label %174
    i32 65534, label %174
    i32 65533, label %174
  ]

174:                                              ; preds = %167, %167, %167
  store i64 -30, ptr %3, align 8
  store i32 1, ptr %11, align 4
  br label %206

175:                                              ; preds = %167
  br label %176

176:                                              ; preds = %175
  br label %177

177:                                              ; preds = %176, %158
  store i32 2, ptr %11, align 4
  br label %206, !llvm.loop !161

178:                                              ; preds = %147
  br label %179

179:                                              ; preds = %178
  br label %180

180:                                              ; preds = %201, %179
  %181 = load i64, ptr %8, align 8, !tbaa !35
  %182 = icmp sgt i64 %181, 0
  br i1 %182, label %183, label %205

183:                                              ; preds = %180
  %184 = load ptr, ptr %4, align 8, !tbaa !9
  %185 = call ptr @cab_read_ahead_cfdata(ptr noundef %184, ptr noundef %12)
  %186 = load i64, ptr %12, align 8, !tbaa !35
  %187 = icmp sle i64 %186, 0
  br i1 %187, label %188, label %189

188:                                              ; preds = %183
  store i64 -30, ptr %3, align 8
  store i32 1, ptr %11, align 4
  br label %206

189:                                              ; preds = %183
  %190 = load i64, ptr %12, align 8, !tbaa !35
  %191 = load i64, ptr %8, align 8, !tbaa !35
  %192 = icmp sgt i64 %190, %191
  br i1 %192, label %193, label %195

193:                                              ; preds = %189
  %194 = load i64, ptr %8, align 8, !tbaa !35
  store i64 %194, ptr %12, align 8, !tbaa !35
  br label %195

195:                                              ; preds = %193, %189
  %196 = load ptr, ptr %4, align 8, !tbaa !9
  %197 = load i64, ptr %12, align 8, !tbaa !35
  %198 = call i64 @cab_minimum_consume_cfdata(ptr noundef %196, i64 noundef %197)
  %199 = icmp slt i64 %198, 0
  br i1 %199, label %200, label %201

200:                                              ; preds = %195
  store i64 -30, ptr %3, align 8
  store i32 1, ptr %11, align 4
  br label %206

201:                                              ; preds = %195
  %202 = load i64, ptr %12, align 8, !tbaa !35
  %203 = load i64, ptr %8, align 8, !tbaa !35
  %204 = sub nsw i64 %203, %202
  store i64 %204, ptr %8, align 8, !tbaa !35
  br label %180, !llvm.loop !162

205:                                              ; preds = %180
  store i32 0, ptr %11, align 4
  br label %206

206:                                              ; preds = %205, %200, %188, %177, %174, %155, %128, %127, %105, %37
  call void @llvm.lifetime.end.p0(i64 8, ptr %12) #11
  %207 = load i32, ptr %11, align 4
  switch i32 %207, label %211 [
    i32 0, label %208
    i32 2, label %28
    i32 3, label %209
  ]

208:                                              ; preds = %206
  br label %28, !llvm.loop !161

209:                                              ; preds = %206, %28
  %210 = load i64, ptr %5, align 8, !tbaa !35
  store i64 %210, ptr %3, align 8
  store i32 1, ptr %11, align 4
  br label %211

211:                                              ; preds = %209, %206, %23
  call void @llvm.lifetime.end.p0(i64 4, ptr %10) #11
  call void @llvm.lifetime.end.p0(i64 8, ptr %9) #11
  call void @llvm.lifetime.end.p0(i64 8, ptr %8) #11
  call void @llvm.lifetime.end.p0(i64 8, ptr %7) #11
  call void @llvm.lifetime.end.p0(i64 8, ptr %6) #11
  %212 = load i64, ptr %3, align 8
  ret i64 %212
}