; Function Attrs: nounwind uwtable
define internal fastcc i64 @cab_consume_cfdata(ptr noundef %0, i64 noundef %1) unnamed_addr #0 {
  %3 = alloca i64, align 8
  %4 = getelementptr inbounds nuw i8, ptr %0, i64 2072
  %5 = load ptr, ptr %4, align 8, !tbaa !11
  %6 = load ptr, ptr %5, align 8, !tbaa !29
  %7 = tail call fastcc i64 @cab_minimum_consume_cfdata(ptr noundef %0, i64 noundef %1)
  %8 = icmp slt i64 %7, 0
  br i1 %8, label %.loopexit76, label %9

9:                                                ; preds = %2
  %10 = getelementptr inbounds nuw i8, ptr %6, i64 56
  %.not103 = icmp eq i64 %7, 0
  br i1 %.not103, label %.loopexit76, label %.lr.ph

.lr.ph:                                           ; preds = %9
  %11 = load ptr, ptr %10, align 8, !tbaa !87
  %12 = getelementptr inbounds nuw i8, ptr %6, i64 48
  %13 = getelementptr inbounds nuw i8, ptr %6, i64 64
  br label %14

14:                                               ; preds = %.lr.ph, %.loopexit
  %.050102 = phi i64 [ %7, %.lr.ph ], [ %23, %.loopexit ]
  %.053101 = phi ptr [ %11, %.lr.ph ], [ %.154, %.loopexit ]
  call void @llvm.lifetime.start.p0(i64 8, ptr nonnull %3) #18
  %15 = getelementptr inbounds nuw i8, ptr %.053101, i64 4
  %16 = load i16, ptr %15, align 4, !tbaa !140
  %17 = icmp eq i16 %16, 0
  br i1 %17, label %18, label %19

18:                                               ; preds = %14
  call void (ptr, i32, ptr, ...) @archive_set_error(ptr noundef %0, i32 noundef 84, ptr noundef nonnull @.str.24) #18
  br label %.loopexit76.sink.split

19:                                               ; preds = %14
  %20 = getelementptr inbounds nuw i8, ptr %.053101, i64 10
  %21 = load i16, ptr %20, align 2, !tbaa !131
  %22 = zext i16 %21 to i64
  %spec.select = call i64 @llvm.umin.i64(i64 %.050102, i64 %22)
  %23 = sub nsw i64 %.050102, %spec.select
  %24 = getelementptr inbounds nuw i8, ptr %.053101, i64 12
  %25 = load i16, ptr %24, align 4, !tbaa !142
  %26 = icmp eq i16 %25, 0
  br i1 %26, label %27, label %58

27:                                               ; preds = %19
  %28 = load ptr, ptr %12, align 8, !tbaa !85
  %29 = getelementptr inbounds nuw i8, ptr %28, i64 16
  %30 = load i16, ptr %29, align 8, !tbaa !76
  switch i16 %30, label %58 [
    i16 -1, label %31
    i16 -3, label %31
  ]

31:                                               ; preds = %27, %27
  %.not = icmp samesign ult i64 %.050102, %22
  br i1 %.not, label %.thread71, label %32

32:                                               ; preds = %31
  %33 = zext i16 %16 to i64
  %34 = call i64 @__archive_read_consume(ptr noundef %0, i64 noundef %33) #18
  %35 = load i16, ptr %15, align 4, !tbaa !140
  %36 = zext i16 %35 to i64
  %37 = load i64, ptr %13, align 8, !tbaa !48
  %38 = add nsw i64 %37, %36
  store i64 %38, ptr %13, align 8, !tbaa !48
  %39 = getelementptr inbounds nuw i8, ptr %.053101, i64 6
  store i16 0, ptr %39, align 2, !tbaa !141
  store i16 0, ptr %20, align 2, !tbaa !131
  %40 = call fastcc i32 @cab_next_cfdata(ptr noundef %0)
  %41 = icmp slt i32 %40, 0
  br i1 %41, label %42, label %44

42:                                               ; preds = %32
  %43 = sext i32 %40 to i64
  br label %.loopexit76.sink.split

44:                                               ; preds = %32
  %45 = load ptr, ptr %10, align 8, !tbaa !87
  %46 = getelementptr inbounds nuw i8, ptr %45, i64 8
  %47 = load i16, ptr %46, align 8, !tbaa !105
  %48 = icmp eq i16 %47, 0
  br i1 %48, label %49, label %.loopexit, !llvm.loop !146

49:                                               ; preds = %44
  %50 = load ptr, ptr %12, align 8, !tbaa !85
  %51 = getelementptr inbounds nuw i8, ptr %50, i64 16
  %52 = load i16, ptr %51, align 8, !tbaa !76
  %switch = icmp ugt i16 %52, -4
  br i1 %switch, label %.loopexit76.sink.split, label %.loopexit

.thread71:                                        ; preds = %31
  %53 = trunc nuw i64 %spec.select to i16
  %54 = getelementptr inbounds nuw i8, ptr %.053101, i64 14
  %55 = load i16, ptr %54, align 2, !tbaa !143
  %56 = add i16 %55, %53
  store i16 %56, ptr %54, align 2, !tbaa !143
  %57 = sub i16 %21, %53
  store i16 %57, ptr %20, align 2, !tbaa !131
  br label %.loopexit76.sink.split

58:                                               ; preds = %27, %19
  %59 = icmp eq i16 %21, 0
  br i1 %59, label %60, label %.preheader

60:                                               ; preds = %58
  %61 = call fastcc i32 @cab_next_cfdata(ptr noundef %0)
  %62 = icmp slt i32 %61, 0
  br i1 %62, label %63, label %65

63:                                               ; preds = %60
  %64 = sext i32 %61 to i64
  br label %.loopexit76.sink.split

65:                                               ; preds = %60
  %66 = load ptr, ptr %10, align 8, !tbaa !87
  %67 = getelementptr inbounds nuw i8, ptr %66, i64 8
  %68 = load i16, ptr %67, align 8, !tbaa !105
  %69 = icmp eq i16 %68, 0
  br i1 %69, label %70, label %.loopexit, !llvm.loop !146

70:                                               ; preds = %65
  %71 = load ptr, ptr %12, align 8, !tbaa !85
  %72 = getelementptr inbounds nuw i8, ptr %71, i64 16
  %73 = load i16, ptr %72, align 8, !tbaa !76
  %switch66 = icmp ugt i16 %73, -4
  br i1 %switch66, label %.loopexit76.sink.split, label %.loopexit, !llvm.loop !146

.preheader:                                       ; preds = %58, %84
  %.152100 = phi i64 [ %86, %84 ], [ %spec.select, %58 ]
  %74 = call fastcc ptr @cab_read_ahead_cfdata(ptr noundef %0, ptr noundef %3)
  %75 = load i64, ptr %3, align 8, !tbaa !7
  %76 = icmp slt i64 %75, 1
  br i1 %76, label %.loopexit76.sink.split, label %77

77:                                               ; preds = %.preheader
  %78 = icmp samesign ugt i64 %75, %.152100
  br i1 %78, label %79, label %80

79:                                               ; preds = %77
  store i64 %.152100, ptr %3, align 8, !tbaa !7
  br label %80

80:                                               ; preds = %79, %77
  %81 = phi i64 [ %.152100, %79 ], [ %75, %77 ]
  %82 = call fastcc i64 @cab_minimum_consume_cfdata(ptr noundef %0, i64 noundef %81)
  %83 = icmp slt i64 %82, 0
  br i1 %83, label %.loopexit76.sink.split, label %84

84:                                               ; preds = %80
  %85 = load i64, ptr %3, align 8, !tbaa !7
  %86 = sub nsw i64 %.152100, %85
  %87 = icmp sgt i64 %86, 0
  br i1 %87, label %.preheader, label %.loopexit, !llvm.loop !147

.loopexit:                                        ; preds = %84, %49, %65, %70, %44
  %.154 = phi ptr [ %45, %49 ], [ %45, %44 ], [ %66, %70 ], [ %66, %65 ], [ %.053101, %84 ]
  call void @llvm.lifetime.end.p0(i64 8, ptr nonnull %3) #18
  %88 = icmp sgt i64 %23, 0
  br i1 %88, label %14, label %.loopexit76

.loopexit76.sink.split:                           ; preds = %49, %70, %80, %.preheader, %63, %42, %18, %.thread71
  %.055.ph = phi i64 [ %1, %.thread71 ], [ %64, %63 ], [ %43, %42 ], [ -30, %18 ], [ -30, %.preheader ], [ -30, %80 ], [ -30, %70 ], [ %1, %49 ]
  call void @llvm.lifetime.end.p0(i64 8, ptr nonnull %3) #18
  br label %.loopexit76

.loopexit76:                                      ; preds = %.loopexit, %.loopexit76.sink.split, %9, %2
  %.055 = phi i64 [ -30, %2 ], [ %1, %9 ], [ %.055.ph, %.loopexit76.sink.split ], [ %1, %.loopexit ]
  ret i64 %.055
}